; Function Attrs: nounwind uwtable
define i32 @png_get_y_pixels_per_inch(ptr noalias noundef readnone %0, ptr noalias noundef readonly %1) local_unnamed_addr #1 {
  %3 = alloca i32, align 4
  %4 = icmp ne ptr %0, null
  %5 = icmp ne ptr %1, null
  %or.cond.i = and i1 %4, %5
  br i1 %or.cond.i, label %6, label %png_get_y_pixels_per_meter.exit.thread

6:                                                ; preds = %2
  %7 = getelementptr inbounds i8, ptr %1, i64 8
  %8 = load i32, ptr %7, align 8, !alias.scope !14, !noalias !17
  %9 = and i32 %8, 128
  %.not.i = icmp eq i32 %9, 0
  br i1 %.not.i, label %png_get_y_pixels_per_meter.exit.thread, label %10

10:                                               ; preds = %6
  %11 = getelementptr inbounds i8, ptr %1, i64 232
  %12 = load i8, ptr %11, align 8, !alias.scope !14, !noalias !17
  %13 = icmp eq i8 %12, 1
  br i1 %13, label %png_get_y_pixels_per_meter.exit, label %png_get_y_pixels_per_meter.exit.thread

png_get_y_pixels_per_meter.exit.thread:           ; preds = %10, %6, %2
  call void @llvm.lifetime.start.p0(i64 4, ptr nonnull %3)
  br label %17

png_get_y_pixels_per_meter.exit:                  ; preds = %10
  %14 = getelementptr inbounds i8, ptr %1, i64 228
  %15 = load i32, ptr %14, align 4, !alias.scope !14, !noalias !17
  call void @llvm.lifetime.start.p0(i64 4, ptr nonnull %3)
  %16 = icmp sgt i32 %15, -1
  br i1 %16, label %17, label %ppi_from_ppm.exit

17:                                               ; preds = %png_get_y_pixels_per_meter.exit.thread, %png_get_y_pixels_per_meter.exit
  %.0.i5 = phi i32 [ 0, %png_get_y_pixels_per_meter.exit.thread ], [ %15, %png_get_y_pixels_per_meter.exit ]
  %18 = call i32 @png_muldiv(ptr noundef nonnull %3, i32 noundef %.0.i5, i32 noundef 127, i32 noundef 5000) #10
  %.not.i3 = icmp eq i32 %18, 0
  %19 = load i32, ptr %3, align 4
  %spec.select.i = select i1 %.not.i3, i32 0, i32 %19
  br label %ppi_from_ppm.exit

ppi_from_ppm.exit:                                ; preds = %png_get_y_pixels_per_meter.exit, %17
  %.0.i2 = phi i32 [ 0, %png_get_y_pixels_per_meter.exit ], [ %spec.select.i, %17 ]
  call void @llvm.lifetime.end.p0(i64 4, ptr nonnull %3)
  ret i32 %.0.i2
}